target datalayout = "e-m:e-p270:32:32-p271:32:32-p272:64:64-i64:64-i128:128-f80:128-n8:16:32:64-S128"
target triple = "x86_64-pc-linux-gnu"

%struct.pmix_object_t = type { %union.pthread_mutex_t, ptr, i32, %struct.pmix_tma }
%union.pthread_mutex_t = type { %struct.__pthread_mutex_s }
%struct.__pthread_mutex_s = type { i32, i32, i32, i32, i32, i16, i16, %struct.__pthread_internal_list }
%struct.__pthread_internal_list = type { ptr, ptr }
%struct.pmix_tma = type { ptr, ptr, ptr, ptr, ptr, ptr, ptr, ptr }
%struct.pmix_bfrop_type_info_t = type { %struct.pmix_object_t, i16, ptr, ptr, ptr, ptr, ptr }
%struct.pmix_pointer_array_t = type { %struct.pmix_object_t, i32, i32, i32, i32, i32, ptr, ptr }
%struct.pmix_net_stats_t = type { ptr, i64, i64, i64, i64, i64, i64 }

; Function Attrs: inlinehint nounwind uwtable
define internal ptr @pmix_pointer_array_get_item(ptr noundef %0, i32 noundef %1) #3 {
  %3 = alloca ptr, align 8
  %4 = alloca ptr, align 8
  %5 = alloca i32, align 4
  %6 = alloca ptr, align 8
  %7 = alloca i32, align 4
  store ptr %0, ptr %4, align 8, !tbaa !3
  store i32 %1, ptr %5, align 4, !tbaa !9
  call void @llvm.lifetime.start.p0(i64 8, ptr %6) #9
  %8 = load i32, ptr %5, align 4, !tbaa !9
  %9 = icmp sgt i32 0, %8
  br i1 %9, label %16, label %10

10:                                               ; preds = %2
  %11 = load ptr, ptr %4, align 8, !tbaa !3
  %12 = getelementptr inbounds nuw %struct.pmix_pointer_array_t, ptr %11, i32 0, i32 3
  %13 = load i32, ptr %12, align 8, !tbaa !22
  %14 = load i32, ptr %5, align 4, !tbaa !9
  %15 = icmp sle i32 %13, %14
  br label %16

16:                                               ; preds = %10, %2
  %17 = phi i1 [ true, %2 ], [ %15, %10 ]
  %18 = xor i1 %17, true
  %19 = xor i1 %18, true
  %20 = zext i1 %19 to i32
  %21 = sext i32 %20 to i64
  %22 = call i64 @llvm.expect.i64(i64 %21, i64 0)
  %23 = icmp ne i64 %22, 0
  br i1 %23, label %24, label %25

24:                                               ; preds = %16
  store ptr null, ptr %3, align 8
  store i32 1, ptr %7, align 4
  br label %34

25:                                               ; preds = %16
  %26 = load ptr, ptr %4, align 8, !tbaa !3
  %27 = getelementptr inbounds nuw %struct.pmix_pointer_array_t, ptr %26, i32 0, i32 7
  %28 = load ptr, ptr %27, align 8, !tbaa !25
  %29 = load i32, ptr %5, align 4, !tbaa !9
  %30 = sext i32 %29 to i64
  %31 = getelementptr inbounds ptr, ptr %28, i64 %30
  %32 = load ptr, ptr %31, align 8, !tbaa !8
  store ptr %32, ptr %6, align 8, !tbaa !8
  %33 = load ptr, ptr %6, align 8, !tbaa !8
  store ptr %33, ptr %3, align 8
  store i32 1, ptr %7, align 4
  br label %34

34:                                               ; preds = %25, %24
  call void @llvm.lifetime.end.p0(i64 8, ptr %6) #9
  %35 = load ptr, ptr %3, align 8
  ret ptr %35
}

; Function Attrs: nounwind uwtable
define i32 @pmix_bfrops_base_pack_netstats(ptr noundef %0, ptr noundef %1, ptr noundef %2, i32 noundef %3, i16 noundef zeroext %4) #0 {
  %6 = alloca i32, align 4
  %7 = alloca ptr, align 8
  %8 = alloca ptr, align 8
  %9 = alloca ptr, align 8
  %10 = alloca i32, align 4
  %11 = alloca i16, align 2
  %12 = alloca ptr, align 8
  %13 = alloca i32, align 4
  %14 = alloca i32, align 4
  %15 = alloca ptr, align 8
  %16 = alloca ptr, align 8
  %17 = alloca i32, align 4
  %18 = alloca ptr, align 8
  %19 = alloca ptr, align 8
  %20 = alloca ptr, align 8
  %21 = alloca ptr, align 8
  %22 = alloca ptr, align 8
  %23 = alloca ptr, align 8
  store ptr %0, ptr %7, align 8, !tbaa !3
  store ptr %1, ptr %8, align 8, !tbaa !8
  store ptr %2, ptr %9, align 8, !tbaa !8
  store i32 %3, ptr %10, align 4, !tbaa !9
  store i16 %4, ptr %11, align 2, !tbaa !11
  call void @llvm.lifetime.start.p0(i64 8, ptr %12) #9
  %24 = load ptr, ptr %9, align 8, !tbaa !8
  store ptr %24, ptr %12, align 8, !tbaa !8
  call void @llvm.lifetime.start.p0(i64 4, ptr %13) #9
  call void @llvm.lifetime.start.p0(i64 4, ptr %14) #9
  call void @llvm.lifetime.start.p0(i64 8, ptr %15) #9
  store i32 0, ptr %13, align 4, !tbaa !9
  br label %25

25:                                               ; preds = %213, %5
  %26 = load i32, ptr %13, align 4, !tbaa !9
  %27 = load i32, ptr %10, align 4, !tbaa !9
  %28 = icmp slt i32 %26, %27
  br i1 %28, label %29, label %216

29:                                               ; preds = %25
  %30 = load ptr, ptr %12, align 8, !tbaa !8
  %31 = load i32, ptr %13, align 4, !tbaa !9
  %32 = sext i32 %31 to i64
  %33 = getelementptr inbounds %struct.pmix_net_stats_t, ptr %30, i64 %32
  %34 = getelementptr inbounds nuw %struct.pmix_net_stats_t, ptr %33, i32 0, i32 0
  %35 = load ptr, ptr %34, align 8, !tbaa !181
  store ptr %35, ptr %15, align 8, !tbaa !37
  br label %36

36:                                               ; preds = %29
  call void @llvm.lifetime.start.p0(i64 8, ptr %16) #9
  %37 = load ptr, ptr %7, align 8, !tbaa !3
  %38 = call ptr @pmix_pointer_array_get_item(ptr noundef %37, i32 noundef 3)
  store ptr %38, ptr %16, align 8, !tbaa !8
  %39 = load ptr, ptr %16, align 8, !tbaa !8
  %40 = icmp eq ptr null, %39
  br i1 %40, label %41, label %42

41:                                               ; preds = %36
  store i32 -16, ptr %14, align 4, !tbaa !9
  br label %49

42:                                               ; preds = %36
  %43 = load ptr, ptr %16, align 8, !tbaa !8
  %44 = getelementptr inbounds nuw %struct.pmix_bfrop_type_info_t, ptr %43, i32 0, i32 3
  %45 = load ptr, ptr %44, align 8, !tbaa !20
  %46 = load ptr, ptr %7, align 8, !tbaa !3
  %47 = load ptr, ptr %8, align 8, !tbaa !8
  %48 = call i32 %45(ptr noundef %46, ptr noundef %47, ptr noundef %15, i32 noundef 1, i16 noundef zeroext 3)
  store i32 %48, ptr %14, align 4, !tbaa !9
  br label %49

49:                                               ; preds = %42, %41
  call void @llvm.lifetime.end.p0(i64 8, ptr %16) #9
  br label %50

50:                                               ; preds = %49
  br label %51

51:                                               ; preds = %50
  %52 = load i32, ptr %14, align 4, !tbaa !9
  %53 = icmp ne i32 0, %52
  br i1 %53, label %54, label %56

54:                                               ; preds = %51
  %55 = load i32, ptr %14, align 4, !tbaa !9
  store i32 %55, ptr %6, align 4
  store i32 1, ptr %17, align 4
  br label %217

56:                                               ; preds = %51
  br label %57

57:                                               ; preds = %56
  call void @llvm.lifetime.start.p0(i64 8, ptr %18) #9
  %58 = load ptr, ptr %7, align 8, !tbaa !3
  %59 = call ptr @pmix_pointer_array_get_item(ptr noundef %58, i32 noundef 15)
  store ptr %59, ptr %18, align 8, !tbaa !8
  %60 = load ptr, ptr %18, align 8, !tbaa !8
  %61 = icmp eq ptr null, %60
  br i1 %61, label %62, label %63

62:                                               ; preds = %57
  store i32 -16, ptr %14, align 4, !tbaa !9
  br label %75

63:                                               ; preds = %57
  %64 = load ptr, ptr %18, align 8, !tbaa !8
  %65 = getelementptr inbounds nuw %struct.pmix_bfrop_type_info_t, ptr %64, i32 0, i32 3
  %66 = load ptr, ptr %65, align 8, !tbaa !20
  %67 = load ptr, ptr %7, align 8, !tbaa !3
  %68 = load ptr, ptr %8, align 8, !tbaa !8
  %69 = load ptr, ptr %12, align 8, !tbaa !8
  %70 = load i32, ptr %13, align 4, !tbaa !9
  %71 = sext i32 %70 to i64
  %72 = getelementptr inbounds %struct.pmix_net_stats_t, ptr %69, i64 %71
  %73 = getelementptr inbounds nuw %struct.pmix_net_stats_t, ptr %72, i32 0, i32 1
  %74 = call i32 %66(ptr noundef %67, ptr noundef %68, ptr noundef %73, i32 noundef 1, i16 noundef zeroext 15)
  store i32 %74, ptr %14, align 4, !tbaa !9
  br label %75

75:                                               ; preds = %63, %62
  call void @llvm.lifetime.end.p0(i64 8, ptr %18) #9
  br label %76

76:                                               ; preds = %75
  br label %77

77:                                               ; preds = %76
  %78 = load i32, ptr %14, align 4, !tbaa !9
  %79 = icmp ne i32 0, %78
  br i1 %79, label %80, label %82

80:                                               ; preds = %77
  %81 = load i32, ptr %14, align 4, !tbaa !9
  store i32 %81, ptr %6, align 4
  store i32 1, ptr %17, align 4
  br label %217

82:                                               ; preds = %77
  br label %83

83:                                               ; preds = %82
  call void @llvm.lifetime.start.p0(i64 8, ptr %19) #9
  %84 = load ptr, ptr %7, align 8, !tbaa !3
  %85 = call ptr @pmix_pointer_array_get_item(ptr noundef %84, i32 noundef 15)
  store ptr %85, ptr %19, align 8, !tbaa !8
  %86 = load ptr, ptr %19, align 8, !tbaa !8
  %87 = icmp eq ptr null, %86
  br i1 %87, label %88, label %89

88:                                               ; preds = %83
  store i32 -16, ptr %14, align 4, !tbaa !9
  br label %101

89:                                               ; preds = %83
  %90 = load ptr, ptr %19, align 8, !tbaa !8
  %91 = getelementptr inbounds nuw %struct.pmix_bfrop_type_info_t, ptr %90, i32 0, i32 3
  %92 = load ptr, ptr %91, align 8, !tbaa !20
  %93 = load ptr, ptr %7, align 8, !tbaa !3
  %94 = load ptr, ptr %8, align 8, !tbaa !8
  %95 = load ptr, ptr %12, align 8, !tbaa !8
  %96 = load i32, ptr %13, align 4, !tbaa !9
  %97 = sext i32 %96 to i64
  %98 = getelementptr inbounds %struct.pmix_net_stats_t, ptr %95, i64 %97
  %99 = getelementptr inbounds nuw %struct.pmix_net_stats_t, ptr %98, i32 0, i32 2
  %100 = call i32 %92(ptr noundef %93, ptr noundef %94, ptr noundef %99, i32 noundef 1, i16 noundef zeroext 15)
  store i32 %100, ptr %14, align 4, !tbaa !9
  br label %101

101:                                              ; preds = %89, %88
  call void @llvm.lifetime.end.p0(i64 8, ptr %19) #9
  br label %102

102:                                              ; preds = %101
  br label %103

103:                                              ; preds = %102
  %104 = load i32, ptr %14, align 4, !tbaa !9
  %105 = icmp ne i32 0, %104
  br i1 %105, label %106, label %108

106:                                              ; preds = %103
  %107 = load i32, ptr %14, align 4, !tbaa !9
  store i32 %107, ptr %6, align 4
  store i32 1, ptr %17, align 4
  br label %217

108:                                              ; preds = %103
  br label %109

109:                                              ; preds = %108
  call void @llvm.lifetime.start.p0(i64 8, ptr %20) #9
  %110 = load ptr, ptr %7, align 8, !tbaa !3
  %111 = call ptr @pmix_pointer_array_get_item(ptr noundef %110, i32 noundef 15)
  store ptr %111, ptr %20, align 8, !tbaa !8
  %112 = load ptr, ptr %20, align 8, !tbaa !8
  %113 = icmp eq ptr null, %112
  br i1 %113, label %114, label %115

114:                                              ; preds = %109
  store i32 -16, ptr %14, align 4, !tbaa !9
  br label %127

115:                                              ; preds = %109
  %116 = load ptr, ptr %20, align 8, !tbaa !8
  %117 = getelementptr inbounds nuw %struct.pmix_bfrop_type_info_t, ptr %116, i32 0, i32 3
  %118 = load ptr, ptr %117, align 8, !tbaa !20
  %119 = load ptr, ptr %7, align 8, !tbaa !3
  %120 = load ptr, ptr %8, align 8, !tbaa !8
  %121 = load ptr, ptr %12, align 8, !tbaa !8
  %122 = load i32, ptr %13, align 4, !tbaa !9
  %123 = sext i32 %122 to i64
  %124 = getelementptr inbounds %struct.pmix_net_stats_t, ptr %121, i64 %123
  %125 = getelementptr inbounds nuw %struct.pmix_net_stats_t, ptr %124, i32 0, i32 3
  %126 = call i32 %118(ptr noundef %119, ptr noundef %120, ptr noundef %125, i32 noundef 1, i16 noundef zeroext 15)
  store i32 %126, ptr %14, align 4, !tbaa !9
  br label %127

127:                                              ; preds = %115, %114
  call void @llvm.lifetime.end.p0(i64 8, ptr %20) #9
  br label %128

128:                                              ; preds = %127
  br label %129

129:                                              ; preds = %128
  %130 = load i32, ptr %14, align 4, !tbaa !9
  %131 = icmp ne i32 0, %130
  br i1 %131, label %132, label %134

132:                                              ; preds = %129
  %133 = load i32, ptr %14, align 4, !tbaa !9
  store i32 %133, ptr %6, align 4
  store i32 1, ptr %17, align 4
  br label %217

134:                                              ; preds = %129
  br label %135

135:                                              ; preds = %134
  call void @llvm.lifetime.start.p0(i64 8, ptr %21) #9
  %136 = load ptr, ptr %7, align 8, !tbaa !3
  %137 = call ptr @pmix_pointer_array_get_item(ptr noundef %136, i32 noundef 15)
  store ptr %137, ptr %21, align 8, !tbaa !8
  %138 = load ptr, ptr %21, align 8, !tbaa !8
  %139 = icmp eq ptr null, %138
  br i1 %139, label %140, label %141

140:                                              ; preds = %135
  store i32 -16, ptr %14, align 4, !tbaa !9
  br label %153

141:                                              ; preds = %135
  %142 = load ptr, ptr %21, align 8, !tbaa !8
  %143 = getelementptr inbounds nuw %struct.pmix_bfrop_type_info_t, ptr %142, i32 0, i32 3
  %144 = load ptr, ptr %143, align 8, !tbaa !20
  %145 = load ptr, ptr %7, align 8, !tbaa !3
  %146 = load ptr, ptr %8, align 8, !tbaa !8
  %147 = load ptr, ptr %12, align 8, !tbaa !8
  %148 = load i32, ptr %13, align 4, !tbaa !9
  %149 = sext i32 %148 to i64
  %150 = getelementptr inbounds %struct.pmix_net_stats_t, ptr %147, i64 %149
  %151 = getelementptr inbounds nuw %struct.pmix_net_stats_t, ptr %150, i32 0, i32 4
  %152 = call i32 %144(ptr noundef %145, ptr noundef %146, ptr noundef %151, i32 noundef 1, i16 noundef zeroext 15)
  store i32 %152, ptr %14, align 4, !tbaa !9
  br label %153

153:                                              ; preds = %141, %140
  call void @llvm.lifetime.end.p0(i64 8, ptr %21) #9
  br label %154

154:                                              ; preds = %153
  br label %155

155:                                              ; preds = %154
  %156 = load i32, ptr %14, align 4, !tbaa !9
  %157 = icmp ne i32 0, %156
  br i1 %157, label %158, label %160

158:                                              ; preds = %155
  %159 = load i32, ptr %14, align 4, !tbaa !9
  store i32 %159, ptr %6, align 4
  store i32 1, ptr %17, align 4
  br label %217

160:                                              ; preds = %155
  br label %161

161:                                              ; preds = %160
  call void @llvm.lifetime.start.p0(i64 8, ptr %22) #9
  %162 = load ptr, ptr %7, align 8, !tbaa !3
  %163 = call ptr @pmix_pointer_array_get_item(ptr noundef %162, i32 noundef 15)
  store ptr %163, ptr %22, align 8, !tbaa !8
  %164 = load ptr, ptr %22, align 8, !tbaa !8
  %165 = icmp eq ptr null, %164
  br i1 %165, label %166, label %167

166:                                              ; preds = %161
  store i32 -16, ptr %14, align 4, !tbaa !9
  br label %179

167:                                              ; preds = %161
  %168 = load ptr, ptr %22, align 8, !tbaa !8
  %169 = getelementptr inbounds nuw %struct.pmix_bfrop_type_info_t, ptr %168, i32 0, i32 3
  %170 = load ptr, ptr %169, align 8, !tbaa !20
  %171 = load ptr, ptr %7, align 8, !tbaa !3
  %172 = load ptr, ptr %8, align 8, !tbaa !8
  %173 = load ptr, ptr %12, align 8, !tbaa !8
  %174 = load i32, ptr %13, align 4, !tbaa !9
  %175 = sext i32 %174 to i64
  %176 = getelementptr inbounds %struct.pmix_net_stats_t, ptr %173, i64 %175
  %177 = getelementptr inbounds nuw %struct.pmix_net_stats_t, ptr %176, i32 0, i32 5
  %178 = call i32 %170(ptr noundef %171, ptr noundef %172, ptr noundef %177, i32 noundef 1, i16 noundef zeroext 15)
  store i32 %178, ptr %14, align 4, !tbaa !9
  br label %179

179:                                              ; preds = %167, %166
  call void @llvm.lifetime.end.p0(i64 8, ptr %22) #9
  br label %180

180:                                              ; preds = %179
  br label %181

181:                                              ; preds = %180
  %182 = load i32, ptr %14, align 4, !tbaa !9
  %183 = icmp ne i32 0, %182
  br i1 %183, label %184, label %186

184:                                              ; preds = %181
  %185 = load i32, ptr %14, align 4, !tbaa !9
  store i32 %185, ptr %6, align 4
  store i32 1, ptr %17, align 4
  br label %217

186:                                              ; preds = %181
  br label %187

187:                                              ; preds = %186
  call void @llvm.lifetime.start.p0(i64 8, ptr %23) #9
  %188 = load ptr, ptr %7, align 8, !tbaa !3
  %189 = call ptr @pmix_pointer_array_get_item(ptr noundef %188, i32 noundef 15)
  store ptr %189, ptr %23, align 8, !tbaa !8
  %190 = load ptr, ptr %23, align 8, !tbaa !8
  %191 = icmp eq ptr null, %190
  br i1 %191, label %192, label %193

192:                                              ; preds = %187
  store i32 -16, ptr %14, align 4, !tbaa !9
  br label %205

193:                                              ; preds = %187
  %194 = load ptr, ptr %23, align 8, !tbaa !8
  %195 = getelementptr inbounds nuw %struct.pmix_bfrop_type_info_t, ptr %194, i32 0, i32 3
  %196 = load ptr, ptr %195, align 8, !tbaa !20
  %197 = load ptr, ptr %7, align 8, !tbaa !3
  %198 = load ptr, ptr %8, align 8, !tbaa !8
  %199 = load ptr, ptr %12, align 8, !tbaa !8
  %200 = load i32, ptr %13, align 4, !tbaa !9
  %201 = sext i32 %200 to i64
  %202 = getelementptr inbounds %struct.pmix_net_stats_t, ptr %199, i64 %201
  %203 = getelementptr inbounds nuw %struct.pmix_net_stats_t, ptr %202, i32 0, i32 6
  %204 = call i32 %196(ptr noundef %197, ptr noundef %198, ptr noundef %203, i32 noundef 1, i16 noundef zeroext 15)
  store i32 %204, ptr %14, align 4, !tbaa !9
  br label %205

205:                                              ; preds = %193, %192
  call void @llvm.lifetime.end.p0(i64 8, ptr %23) #9
  br label %206

206:                                              ; preds = %205
  br label %207

207:                                              ; preds = %206
  %208 = load i32, ptr %14, align 4, !tbaa !9
  %209 = icmp ne i32 0, %208
  br i1 %209, label %210, label %212

210:                                              ; preds = %207
  %211 = load i32, ptr %14, align 4, !tbaa !9
  store i32 %211, ptr %6, align 4
  store i32 1, ptr %17, align 4
  br label %217

212:                                              ; preds = %207
  br label %213

213:                                              ; preds = %212
  %214 = load i32, ptr %13, align 4, !tbaa !9
  %215 = add nsw i32 %214, 1
  store i32 %215, ptr %13, align 4, !tbaa !9
  br label %25, !llvm.loop !183

216:                                              ; preds = %25
  store i32 0, ptr %6, align 4
  store i32 1, ptr %17, align 4
  br label %217

217:                                              ; preds = %216, %210, %184, %158, %132, %106, %80, %54
  call void @llvm.lifetime.end.p0(i64 8, ptr %15) #9
  call void @llvm.lifetime.end.p0(i64 4, ptr %14) #9
  call void @llvm.lifetime.end.p0(i64 4, ptr %13) #9
  call void @llvm.lifetime.end.p0(i64 8, ptr %12) #9
  %218 = load i32, ptr %6, align 4
  ret i32 %218
}