; Function Attrs: nounwind uwtable
define i32 @pmix_bfrops_base_pack_netstats(ptr noundef %0, ptr noundef %1, ptr noundef %2, i32 noundef %3, i16 noundef zeroext %4) local_unnamed_addr #0 {
  %6 = alloca ptr, align 8
  call void @llvm.lifetime.start.p0(i64 8, ptr nonnull %6) #8
  %7 = getelementptr inbounds nuw i8, ptr %0, i64 152
  %8 = icmp sgt i32 %3, 0
  br i1 %8, label %.lr.ph, label %.thread

.lr.ph:                                           ; preds = %5
  %9 = getelementptr inbounds nuw i8, ptr %0, i64 128
  %wide.trip.count = zext nneg i32 %3 to i64
  br label %11

10:                                               ; preds = %84
  %indvars.iv.next = add nuw nsw i64 %indvars.iv, 1
  %exitcond.not = icmp eq i64 %indvars.iv.next, %wide.trip.count
  br i1 %exitcond.not, label %.thread, label %11, !llvm.loop !136

11:                                               ; preds = %.lr.ph, %10
  %indvars.iv = phi i64 [ 0, %.lr.ph ], [ %indvars.iv.next, %10 ]
  %12 = getelementptr inbounds nuw %struct.pmix_net_stats_t, ptr %2, i64 %indvars.iv
  %13 = load ptr, ptr %12, align 8, !tbaa !137
  store ptr %13, ptr %6, align 8, !tbaa !45
  %14 = load i32, ptr %9, align 8, !tbaa !15
  %.not.i = icmp sgt i32 %14, 3
  br i1 %.not.i, label %pmix_pointer_array_get_item.exit, label %.thread, !prof !18

pmix_pointer_array_get_item.exit:                 ; preds = %11
  %15 = load ptr, ptr %7, align 8, !tbaa !19
  %16 = getelementptr inbounds nuw i8, ptr %15, i64 24
  %17 = load ptr, ptr %16, align 8, !tbaa !20
  %18 = icmp eq ptr %17, null
  br i1 %18, label %.thread, label %19

19:                                               ; preds = %pmix_pointer_array_get_item.exit
  %20 = getelementptr inbounds nuw i8, ptr %17, i64 136
  %21 = load ptr, ptr %20, align 8, !tbaa !21
  %22 = call i32 %21(ptr noundef nonnull %0, ptr noundef %1, ptr noundef nonnull %6, i32 noundef 1, i16 noundef zeroext 3) #8
  %.not = icmp eq i32 %22, 0
  br i1 %.not, label %23, label %.thread

23:                                               ; preds = %19
  %24 = load i32, ptr %9, align 8, !tbaa !15
  %.not.i82 = icmp sgt i32 %24, 15
  br i1 %.not.i82, label %pmix_pointer_array_get_item.exit84, label %.thread, !prof !18

pmix_pointer_array_get_item.exit84:               ; preds = %23
  %25 = load ptr, ptr %7, align 8, !tbaa !19
  %26 = getelementptr inbounds nuw i8, ptr %25, i64 120
  %27 = load ptr, ptr %26, align 8, !tbaa !20
  %28 = icmp eq ptr %27, null
  br i1 %28, label %.thread, label %29

29:                                               ; preds = %pmix_pointer_array_get_item.exit84
  %30 = getelementptr inbounds nuw i8, ptr %27, i64 136
  %31 = load ptr, ptr %30, align 8, !tbaa !21
  %32 = getelementptr inbounds nuw i8, ptr %12, i64 8
  %33 = call i32 %31(ptr noundef nonnull %0, ptr noundef %1, ptr noundef nonnull %32, i32 noundef 1, i16 noundef zeroext 15) #8
  %.not76 = icmp eq i32 %33, 0
  br i1 %.not76, label %34, label %.thread

34:                                               ; preds = %29
  %35 = load i32, ptr %9, align 8, !tbaa !15
  %.not.i85 = icmp sgt i32 %35, 15
  br i1 %.not.i85, label %pmix_pointer_array_get_item.exit87, label %.thread, !prof !18

pmix_pointer_array_get_item.exit87:               ; preds = %34
  %36 = load ptr, ptr %7, align 8, !tbaa !19
  %37 = getelementptr inbounds nuw i8, ptr %36, i64 120
  %38 = load ptr, ptr %37, align 8, !tbaa !20
  %39 = icmp eq ptr %38, null
  br i1 %39, label %.thread, label %40

40:                                               ; preds = %pmix_pointer_array_get_item.exit87
  %41 = getelementptr inbounds nuw i8, ptr %38, i64 136
  %42 = load ptr, ptr %41, align 8, !tbaa !21
  %43 = getelementptr inbounds nuw i8, ptr %12, i64 16
  %44 = call i32 %42(ptr noundef nonnull %0, ptr noundef %1, ptr noundef nonnull %43, i32 noundef 1, i16 noundef zeroext 15) #8
  %.not77 = icmp eq i32 %44, 0
  br i1 %.not77, label %45, label %.thread

45:                                               ; preds = %40
  %46 = load i32, ptr %9, align 8, !tbaa !15
  %.not.i88 = icmp sgt i32 %46, 15
  br i1 %.not.i88, label %pmix_pointer_array_get_item.exit90, label %.thread, !prof !18

pmix_pointer_array_get_item.exit90:               ; preds = %45
  %47 = load ptr, ptr %7, align 8, !tbaa !19
  %48 = getelementptr inbounds nuw i8, ptr %47, i64 120
  %49 = load ptr, ptr %48, align 8, !tbaa !20
  %50 = icmp eq ptr %49, null
  br i1 %50, label %.thread, label %51

51:                                               ; preds = %pmix_pointer_array_get_item.exit90
  %52 = getelementptr inbounds nuw i8, ptr %49, i64 136
  %53 = load ptr, ptr %52, align 8, !tbaa !21
  %54 = getelementptr inbounds nuw i8, ptr %12, i64 24
  %55 = call i32 %53(ptr noundef nonnull %0, ptr noundef %1, ptr noundef nonnull %54, i32 noundef 1, i16 noundef zeroext 15) #8
  %.not78 = icmp eq i32 %55, 0
  br i1 %.not78, label %56, label %.thread

56:                                               ; preds = %51
  %57 = load i32, ptr %9, align 8, !tbaa !15
  %.not.i91 = icmp sgt i32 %57, 15
  br i1 %.not.i91, label %pmix_pointer_array_get_item.exit93, label %.thread, !prof !18

pmix_pointer_array_get_item.exit93:               ; preds = %56
  %58 = load ptr, ptr %7, align 8, !tbaa !19
  %59 = getelementptr inbounds nuw i8, ptr %58, i64 120
  %60 = load ptr, ptr %59, align 8, !tbaa !20
  %61 = icmp eq ptr %60, null
  br i1 %61, label %.thread, label %62

62:                                               ; preds = %pmix_pointer_array_get_item.exit93
  %63 = getelementptr inbounds nuw i8, ptr %60, i64 136
  %64 = load ptr, ptr %63, align 8, !tbaa !21
  %65 = getelementptr inbounds nuw i8, ptr %12, i64 32
  %66 = call i32 %64(ptr noundef nonnull %0, ptr noundef %1, ptr noundef nonnull %65, i32 noundef 1, i16 noundef zeroext 15) #8
  %.not79 = icmp eq i32 %66, 0
  br i1 %.not79, label %67, label %.thread

67:                                               ; preds = %62
  %68 = load i32, ptr %9, align 8, !tbaa !15
  %.not.i94 = icmp sgt i32 %68, 15
  br i1 %.not.i94, label %pmix_pointer_array_get_item.exit96, label %.thread, !prof !18

pmix_pointer_array_get_item.exit96:               ; preds = %67
  %69 = load ptr, ptr %7, align 8, !tbaa !19
  %70 = getelementptr inbounds nuw i8, ptr %69, i64 120
  %71 = load ptr, ptr %70, align 8, !tbaa !20
  %72 = icmp eq ptr %71, null
  br i1 %72, label %.thread, label %73

73:                                               ; preds = %pmix_pointer_array_get_item.exit96
  %74 = getelementptr inbounds nuw i8, ptr %71, i64 136
  %75 = load ptr, ptr %74, align 8, !tbaa !21
  %76 = getelementptr inbounds nuw i8, ptr %12, i64 40
  %77 = call i32 %75(ptr noundef nonnull %0, ptr noundef %1, ptr noundef nonnull %76, i32 noundef 1, i16 noundef zeroext 15) #8
  %.not80 = icmp eq i32 %77, 0
  br i1 %.not80, label %78, label %.thread

78:                                               ; preds = %73
  %79 = load i32, ptr %9, align 8, !tbaa !15
  %.not.i97 = icmp sgt i32 %79, 15
  br i1 %.not.i97, label %pmix_pointer_array_get_item.exit99, label %.thread, !prof !18

pmix_pointer_array_get_item.exit99:               ; preds = %78
  %80 = load ptr, ptr %7, align 8, !tbaa !19
  %81 = getelementptr inbounds nuw i8, ptr %80, i64 120
  %82 = load ptr, ptr %81, align 8, !tbaa !20
  %83 = icmp eq ptr %82, null
  br i1 %83, label %.thread, label %84

84:                                               ; preds = %pmix_pointer_array_get_item.exit99
  %85 = getelementptr inbounds nuw i8, ptr %82, i64 136
  %86 = load ptr, ptr %85, align 8, !tbaa !21
  %87 = getelementptr inbounds nuw i8, ptr %12, i64 48
  %88 = call i32 %86(ptr noundef nonnull %0, ptr noundef %1, ptr noundef nonnull %87, i32 noundef 1, i16 noundef zeroext 15) #8
  %.not81 = icmp eq i32 %88, 0
  br i1 %.not81, label %10, label %.thread

.thread:                                          ; preds = %19, %29, %40, %51, %62, %73, %84, %10, %pmix_pointer_array_get_item.exit, %11, %pmix_pointer_array_get_item.exit84, %23, %pmix_pointer_array_get_item.exit87, %34, %pmix_pointer_array_get_item.exit90, %45, %pmix_pointer_array_get_item.exit93, %56, %pmix_pointer_array_get_item.exit96, %67, %pmix_pointer_array_get_item.exit99, %78, %5
  %.0 = phi i32 [ 0, %5 ], [ -16, %78 ], [ -16, %pmix_pointer_array_get_item.exit99 ], [ -16, %67 ], [ -16, %pmix_pointer_array_get_item.exit96 ], [ -16, %56 ], [ -16, %pmix_pointer_array_get_item.exit93 ], [ -16, %45 ], [ -16, %pmix_pointer_array_get_item.exit90 ], [ -16, %34 ], [ -16, %pmix_pointer_array_get_item.exit87 ], [ -16, %23 ], [ -16, %pmix_pointer_array_get_item.exit84 ], [ -16, %11 ], [ -16, %pmix_pointer_array_get_item.exit ], [ 0, %10 ], [ %88, %84 ], [ %77, %73 ], [ %66, %62 ], [ %55, %51 ], [ %44, %40 ], [ %33, %29 ], [ %22, %19 ]
  call void @llvm.lifetime.end.p0(i64 8, ptr nonnull %6) #8
  ret i32 %.0
}